; Function Attrs: null_pointer_is_valid sspstrong uwtable
define internal range(i32 0, 5) i32 @uint64_divide(ptr noundef writeonly captures(none) %0, ptr noundef readonly captures(none) %1, ptr noundef readonly captures(none) %2, ptr noundef writeonly captures(none) %3) #0 {
  %5 = getelementptr inbounds nuw i8, ptr %2, i64 8
  %6 = load i64, ptr %5, align 8
  %7 = icmp eq i64 %6, 0
  br i1 %7, label %8, label %10

8:                                                ; preds = %4
  %9 = tail call noalias ptr (ptr, ptr, ...) @wmem_strdup_printf(ptr noundef null, ptr noundef nonnull @.str.48)
  store ptr %9, ptr %3, align 8
  br label %15

10:                                               ; preds = %4
  %11 = getelementptr inbounds nuw i8, ptr %0, i64 8
  %12 = getelementptr inbounds nuw i8, ptr %1, i64 8
  %13 = load i64, ptr %12, align 8
  %14 = udiv i64 %13, %6
  store i64 %14, ptr %11, align 8
  br label %15

15:                                               ; preds = %10, %8
  %.0 = phi i32 [ 4, %8 ], [ 0, %10 ]
  ret i32 %.0
}